; Function Attrs: null_pointer_is_valid sspstrong uwtable
define internal i32 @dissect_h245_T_subElementList(ptr noundef %0, i32 noundef %1, ptr noundef %2, ptr noundef %3, i32 noundef %4) #1 {
  %6 = alloca %struct._h223_mux_element, align 8
  call void @llvm.lifetime.start.p0(i64 24, ptr nonnull %6) #13
  %7 = load ptr, ptr @h223_me, align 8
  call void @llvm.memset.p0.i64(ptr noundef nonnull align 8 dereferenceable(24) %6, i8 noundef 0, i64 noundef 24, i1 noundef false) #13
  store ptr %6, ptr @h223_me, align 8
  %8 = load i32, ptr @ett_h245_T_subElementList, align 4
  %9 = call i32 @dissect_per_constrained_sequence_of(ptr noundef %0, i32 noundef %1, ptr noundef %2, ptr noundef %3, i32 noundef %4, i32 noundef %8, ptr noundef nonnull @T_subElementList_sequence_of, i32 noundef 2, i32 noundef 255, i1 noundef zeroext false)
  %10 = getelementptr inbounds nuw i8, ptr %6, i64 16
  %11 = load ptr, ptr %10, align 8
  store ptr %11, ptr %7, align 8
  store ptr %7, ptr @h223_me, align 8
  %12 = getelementptr inbounds nuw i8, ptr %7, i64 8
  store i16 0, ptr %12, align 8
  call void @llvm.lifetime.end.p0(i64 24, ptr nonnull %6) #13
  ret i32 %9
}